target datalayout = "e-m:e-p270:32:32-p271:32:32-p272:64:64-i64:64-i128:128-f80:128-n8:16:32:64-S128"
target triple = "x86_64-pc-linux-gnu"

@.str.4 = private unnamed_addr constant [2 x i8] c"\0A\00", align 1
@.str.5 = private unnamed_addr constant [27 x i8] c"    synth_intel [options]\0A\00", align 1
@.str.6 = private unnamed_addr constant [46 x i8] c"This command runs synthesis for Intel FPGAs.\0A\00", align 1
@.str.7 = private unnamed_addr constant [60 x i8] c"    -family <max10 | cyclone10lp | cycloneiv | cycloneive>\0A\00", align 1
@.str.8 = private unnamed_addr constant [66 x i8] c"        generate the synthesis netlist for the specified family.\0A\00", align 1
@.str.9 = private unnamed_addr constant [70 x i8] c"        MAX10 is the default target if no family argument specified.\0A\00", align 1
@.str.10 = private unnamed_addr constant [82 x i8] c"        For Cyclone IV GX devices, use cycloneiv argument; for Cyclone IV E, use\0A\00", align 1
@.str.11 = private unnamed_addr constant [78 x i8] c"        cycloneive. For Cyclone V and Cyclone 10 GX, use the synth_intel_alm\0A\00", align 1
@.str.12 = private unnamed_addr constant [26 x i8] c"        backend instead.\0A\00", align 1
@.str.13 = private unnamed_addr constant [19 x i8] c"    -top <module>\0A\00", align 1
@.str.14 = private unnamed_addr constant [64 x i8] c"        use the specified module as top module (default='top')\0A\00", align 1
@.str.15 = private unnamed_addr constant [17 x i8] c"    -vqm <file>\0A\00", align 1
@.str.16 = private unnamed_addr constant [81 x i8] c"        write the design to the specified Verilog Quartus Mapping File. Writing\0A\00", align 1
@.str.17 = private unnamed_addr constant [74 x i8] c"        of an output file is omitted if this parameter is not specified.\0A\00", align 1
@.str.18 = private unnamed_addr constant [79 x i8] c"        Note that this backend has not been tested and is likely incompatible\0A\00", align 1
@.str.19 = private unnamed_addr constant [42 x i8] c"        with recent versions of Quartus.\0A\00", align 1
@.str.20 = private unnamed_addr constant [17 x i8] c"    -vpr <file>\0A\00", align 1
@.str.21 = private unnamed_addr constant [80 x i8] c"        write BLIF files for VPR flow experiments. The synthesized BLIF output\0A\00", align 1
@.str.22 = private unnamed_addr constant [69 x i8] c"        file is not compatible with the Quartus flow. Writing of an\0A\00", align 1
@.str.23 = private unnamed_addr constant [68 x i8] c"        output file is omitted if this parameter is not specified.\0A\00", align 1
@.str.24 = private unnamed_addr constant [34 x i8] c"    -run <from_label>:<to_label>\0A\00", align 1
@.str.25 = private unnamed_addr constant [72 x i8] c"        only run the commands between the labels (see below). an empty\0A\00", align 1
@.str.26 = private unnamed_addr constant [68 x i8] c"        from label is synonymous to 'begin', and empty to label is\0A\00", align 1
@.str.27 = private unnamed_addr constant [52 x i8] c"        synonymous to the end of the command list.\0A\00", align 1
@.str.28 = private unnamed_addr constant [13 x i8] c"    -iopads\0A\00", align 1
@.str.29 = private unnamed_addr constant [44 x i8] c"        use IO pad cells in output netlist\0A\00", align 1
@.str.30 = private unnamed_addr constant [13 x i8] c"    -nobram\0A\00", align 1
@.str.31 = private unnamed_addr constant [54 x i8] c"        do not use block RAM cells in output netlist\0A\00", align 1
@.str.32 = private unnamed_addr constant [16 x i8] c"    -noflatten\0A\00", align 1
@.str.33 = private unnamed_addr constant [48 x i8] c"        do not flatten design before synthesis\0A\00", align 1
@.str.34 = private unnamed_addr constant [13 x i8] c"    -retime\0A\00", align 1
@.str.35 = private unnamed_addr constant [44 x i8] c"        run 'abc' with '-dff -D 1' options\0A\00", align 1
@.str.36 = private unnamed_addr constant [64 x i8] c"The following commands are executed by this synthesis command:\0A\00", align 1

; Function Attrs: mustprogress uwtable
define internal void @_ZN12_GLOBAL__N_114SynthIntelPass4helpEv(ptr noundef nonnull align 8 dereferenceable(316) %0) unnamed_addr #4 align 2 {
  %2 = alloca ptr, align 8
  store ptr %0, ptr %2, align 8, !tbaa !6
  %3 = load ptr, ptr %2, align 8
  call void (ptr, ...) @_ZN5Yosys3logEPKcz(ptr noundef @.str.4)
  call void (ptr, ...) @_ZN5Yosys3logEPKcz(ptr noundef @.str.5)
  call void (ptr, ...) @_ZN5Yosys3logEPKcz(ptr noundef @.str.4)
  call void (ptr, ...) @_ZN5Yosys3logEPKcz(ptr noundef @.str.6)
  call void (ptr, ...) @_ZN5Yosys3logEPKcz(ptr noundef @.str.4)
  call void (ptr, ...) @_ZN5Yosys3logEPKcz(ptr noundef @.str.7)
  call void (ptr, ...) @_ZN5Yosys3logEPKcz(ptr noundef @.str.8)
  call void (ptr, ...) @_ZN5Yosys3logEPKcz(ptr noundef @.str.9)
  call void (ptr, ...) @_ZN5Yosys3logEPKcz(ptr noundef @.str.10)
  call void (ptr, ...) @_ZN5Yosys3logEPKcz(ptr noundef @.str.11)
  call void (ptr, ...) @_ZN5Yosys3logEPKcz(ptr noundef @.str.12)
  call void (ptr, ...) @_ZN5Yosys3logEPKcz(ptr noundef @.str.4)
  call void (ptr, ...) @_ZN5Yosys3logEPKcz(ptr noundef @.str.13)
  call void (ptr, ...) @_ZN5Yosys3logEPKcz(ptr noundef @.str.14)
  call void (ptr, ...) @_ZN5Yosys3logEPKcz(ptr noundef @.str.4)
  call void (ptr, ...) @_ZN5Yosys3logEPKcz(ptr noundef @.str.15)
  call void (ptr, ...) @_ZN5Yosys3logEPKcz(ptr noundef @.str.16)
  call void (ptr, ...) @_ZN5Yosys3logEPKcz(ptr noundef @.str.17)
  call void (ptr, ...) @_ZN5Yosys3logEPKcz(ptr noundef @.str.18)
  call void (ptr, ...) @_ZN5Yosys3logEPKcz(ptr noundef @.str.19)
  call void (ptr, ...) @_ZN5Yosys3logEPKcz(ptr noundef @.str.4)
  call void (ptr, ...) @_ZN5Yosys3logEPKcz(ptr noundef @.str.20)
  call void (ptr, ...) @_ZN5Yosys3logEPKcz(ptr noundef @.str.21)
  call void (ptr, ...) @_ZN5Yosys3logEPKcz(ptr noundef @.str.22)
  call void (ptr, ...) @_ZN5Yosys3logEPKcz(ptr noundef @.str.23)
  call void (ptr, ...) @_ZN5Yosys3logEPKcz(ptr noundef @.str.4)
  call void (ptr, ...) @_ZN5Yosys3logEPKcz(ptr noundef @.str.24)
  call void (ptr, ...) @_ZN5Yosys3logEPKcz(ptr noundef @.str.25)
  call void (ptr, ...) @_ZN5Yosys3logEPKcz(ptr noundef @.str.26)
  call void (ptr, ...) @_ZN5Yosys3logEPKcz(ptr noundef @.str.27)
  call void (ptr, ...) @_ZN5Yosys3logEPKcz(ptr noundef @.str.4)
  call void (ptr, ...) @_ZN5Yosys3logEPKcz(ptr noundef @.str.28)
  call void (ptr, ...) @_ZN5Yosys3logEPKcz(ptr noundef @.str.29)
  call void (ptr, ...) @_ZN5Yosys3logEPKcz(ptr noundef @.str.4)
  call void (ptr, ...) @_ZN5Yosys3logEPKcz(ptr noundef @.str.30)
  call void (ptr, ...) @_ZN5Yosys3logEPKcz(ptr noundef @.str.31)
  call void (ptr, ...) @_ZN5Yosys3logEPKcz(ptr noundef @.str.4)
  call void (ptr, ...) @_ZN5Yosys3logEPKcz(ptr noundef @.str.32)
  call void (ptr, ...) @_ZN5Yosys3logEPKcz(ptr noundef @.str.33)
  call void (ptr, ...) @_ZN5Yosys3logEPKcz(ptr noundef @.str.4)
  call void (ptr, ...) @_ZN5Yosys3logEPKcz(ptr noundef @.str.34)
  call void (ptr, ...) @_ZN5Yosys3logEPKcz(ptr noundef @.str.35)
  call void (ptr, ...) @_ZN5Yosys3logEPKcz(ptr noundef @.str.4)
  call void (ptr, ...) @_ZN5Yosys3logEPKcz(ptr noundef @.str.36)
  call void @_ZN5Yosys10ScriptPass11help_scriptEv(ptr noundef nonnull align 8 dereferenceable(184) %3)
  call void (ptr, ...) @_ZN5Yosys3logEPKcz(ptr noundef @.str.4)
  ret void
}